; Function Attrs: mustprogress nounwind uwtable
define dso_local void @_ZN4llvm23SampleProfileLoaderPassC2ENSt7__cxx1112basic_stringIcSt11char_traitsIcESaIcEEES6_NS_18ThinOrFullLTOPhaseENS_18IntrusiveRefCntPtrINS_3vfs10FileSystemEEE(ptr noundef nonnull align 8 dereferenceable(80) %0, ptr noundef nonnull %1, ptr noundef %2, i32 noundef %3, ptr noundef captures(none) %4) unnamed_addr #0 align 2 {
  tail call void @_ZNSt7__cxx1112basic_stringIcSt11char_traitsIcESaIcEEC1ERKS4_(ptr noundef nonnull align 8 dereferenceable(32) %0, ptr noundef nonnull align 8 dereferenceable(32) %1) #22
  %6 = getelementptr inbounds nuw i8, ptr %0, i64 32
  tail call void @_ZNSt7__cxx1112basic_stringIcSt11char_traitsIcESaIcEEC1ERKS4_(ptr noundef nonnull align 8 dereferenceable(32) %6, ptr noundef nonnull align 8 dereferenceable(32) %2) #22
  %7 = getelementptr inbounds nuw i8, ptr %0, i64 64
  store i32 %3, ptr %7, align 8
  %8 = getelementptr inbounds nuw i8, ptr %0, i64 72
  %9 = load ptr, ptr %4, align 8
  store ptr %9, ptr %8, align 8
  store ptr null, ptr %4, align 8
  ret void
}